target datalayout = "e-m:e-p270:32:32-p271:32:32-p272:64:64-i64:64-i128:128-f80:128-n8:16:32:64-S128"
target triple = "x86_64-pc-linux-gnu"

@.str.47 = private unnamed_addr constant [57 x i8] c"TShark: The available options for field output \22E\22 are:\0A\00", align 1
@.str.48 = private unnamed_addr constant [59 x i8] c"bom=y|n    Prepend output with the UTF-8 BOM (def: N: no)\0A\00", align 1
@.str.49 = private unnamed_addr constant [78 x i8] c"header=y|n    Print field abbreviations as first line of output (def: N: no)\0A\00", align 1
@.str.50 = private unnamed_addr constant [102 x i8] c"separator=/t|/s|<character>   Set the separator to use;\0A     \22/t\22 = tab, \22/s\22 = space (def: /t: tab)\0A\00", align 1
@.str.51 = private unnamed_addr constant [114 x i8] c"occurrence=f|l|a  Select the occurrence of a field to use;\0A     \22f\22 = first, \22l\22 = last, \22a\22 = all (def: a: all)\0A\00", align 1
@.str.52 = private unnamed_addr constant [105 x i8] c"aggregator=,|/s|<character>   Set the aggregator to use;\0A     \22,\22 = comma, \22/s\22 = space (def: ,: comma)\0A\00", align 1
@.str.53 = private unnamed_addr constant [120 x i8] c"quote=d|s|n   Print either d: double-quotes, s: single quotes or \0A     n: no quotes around field values (def: n: none)\0A\00", align 1

; Function Attrs: null_pointer_is_valid sspstrong uwtable
define void @output_fields_list_options(ptr noundef %0) #0 {
  %2 = alloca ptr, align 8
  store ptr %0, ptr %2, align 8
  %3 = load ptr, ptr %2, align 8
  %4 = call i32 (ptr, i32, ptr, ...) @__fprintf_chk(ptr noundef %3, i32 noundef 2, ptr noundef @.str.47)
  %5 = load ptr, ptr %2, align 8
  %6 = call i32 @fputs(ptr noundef @.str.48, ptr noundef %5)
  %7 = load ptr, ptr %2, align 8
  %8 = call i32 @fputs(ptr noundef @.str.49, ptr noundef %7)
  %9 = load ptr, ptr %2, align 8
  %10 = call i32 @fputs(ptr noundef @.str.50, ptr noundef %9)
  %11 = load ptr, ptr %2, align 8
  %12 = call i32 @fputs(ptr noundef @.str.51, ptr noundef %11)
  %13 = load ptr, ptr %2, align 8
  %14 = call i32 @fputs(ptr noundef @.str.52, ptr noundef %13)
  %15 = load ptr, ptr %2, align 8
  %16 = call i32 @fputs(ptr noundef @.str.53, ptr noundef %15)
  ret void
}