; Function Attrs: null_pointer_is_valid sspstrong uwtable
define void @output_fields_list_options(ptr noundef %0) local_unnamed_addr #0 {
  %2 = tail call i32 (ptr, i32, ptr, ...) @__fprintf_chk(ptr noundef %0, i32 noundef 2, ptr noundef nonnull @.str.47)
  %3 = tail call i64 @fwrite(ptr nonnull @.str.48, i64 58, i64 1, ptr %0)
  %4 = tail call i64 @fwrite(ptr nonnull @.str.49, i64 77, i64 1, ptr %0)
  %5 = tail call i64 @fwrite(ptr nonnull @.str.50, i64 101, i64 1, ptr %0)
  %6 = tail call i64 @fwrite(ptr nonnull @.str.51, i64 113, i64 1, ptr %0)
  %7 = tail call i64 @fwrite(ptr nonnull @.str.52, i64 104, i64 1, ptr %0)
  %8 = tail call i64 @fwrite(ptr nonnull @.str.53, i64 119, i64 1, ptr %0)
  ret void
}